target datalayout = "e-m:e-p270:32:32-p271:32:32-p272:64:64-i64:64-i128:128-f80:128-n8:16:32:64-S128"
target triple = "x86_64-pc-linux-gnu"

%struct._zend_assert_globals = type { %struct._zval_struct, ptr, i8, i8, i8, i8 }
%struct._zval_struct = type { %union._zend_value, %union.anon, %union.anon.2 }
%union._zend_value = type { i64 }
%union.anon = type { i32 }
%union.anon.2 = type { i32 }

@assert_globals = hidden global %struct._zend_assert_globals zeroinitializer, align 8

; Function Attrs: nounwind uwtable
define hidden i32 @zm_deactivate_assert(i32 noundef %0, i32 noundef %1) #0 {
  %3 = alloca ptr, align 8
  %4 = alloca i32, align 4
  %5 = alloca i32, align 4
  store i32 %0, ptr %4, align 4
  store i32 %1, ptr %5, align 4
  store ptr @assert_globals, ptr %3, align 8
  %6 = load ptr, ptr %3, align 8
  %7 = getelementptr inbounds %struct._zval_struct, ptr %6, i32 0, i32 1
  %8 = load i8, ptr %7, align 8
  %9 = zext i8 %8 to i32
  %10 = icmp ne i32 %9, 0
  br i1 %10, label %11, label %14

11:                                               ; preds = %2
  call void @zval_ptr_dtor(ptr noundef @assert_globals)
  br label %12

12:                                               ; preds = %11
  store i32 0, ptr getelementptr inbounds (%struct._zval_struct, ptr @assert_globals, i32 0, i32 1), align 8
  br label %13

13:                                               ; preds = %12
  br label %14

14:                                               ; preds = %13, %2
  ret i32 0
}