; Function Attrs: nounwind uwtable
define hidden noundef i32 @zm_deactivate_assert(i32 noundef %0, i32 noundef %1) local_unnamed_addr #0 {
  %3 = load i8, ptr getelementptr inbounds (%struct._zend_assert_globals, ptr @assert_globals, i64 0, i32 0, i32 1), align 8
  %.not = icmp eq i8 %3, 0
  br i1 %.not, label %5, label %4

4:                                                ; preds = %2
  tail call void @zval_ptr_dtor(ptr noundef nonnull @assert_globals) #8
  store i32 0, ptr getelementptr inbounds (%struct._zend_assert_globals, ptr @assert_globals, i64 0, i32 0, i32 1), align 8
  br label %5

5:                                                ; preds = %4, %2
  ret i32 0
}